target datalayout = "e-m:e-p270:32:32-p271:32:32-p272:64:64-i64:64-i128:128-f80:128-n8:16:32:64-S128"
target triple = "x86_64-unknown-linux-gnu"

%"class.icu_75::ScriptRunIterator" = type <{ ptr, i32, i32, i32, i32, i32, [4 x i8] }>
%struct.UTransPosition = type { i32, i32, i32, i32 }

@_ZN6icu_7517ScriptRunIteratorC1ERKNS_11ReplaceableEii = unnamed_addr alias void (ptr, ptr, i32, i32), ptr @_ZN6icu_7517ScriptRunIteratorC2ERKNS_11ReplaceableEii

; Function Attrs: mustprogress uwtable
define linkonce_odr noundef i32 @_ZNK6icu_7511Replaceable8char32AtEi(ptr noundef nonnull align 8 dereferenceable(8) %this, i32 noundef %offset) #1 comdat align 2 {
entry:
  %this.addr = alloca ptr, align 8
  %offset.addr = alloca i32, align 4
  store ptr %this, ptr %this.addr, align 8
  store i32 %offset, ptr %offset.addr, align 4
  %this1 = load ptr, ptr %this.addr, align 8
  %0 = load i32, ptr %offset.addr, align 4
  %vtable = load ptr, ptr %this1, align 8
  %vfn = getelementptr inbounds ptr, ptr %vtable, i64 10
  %1 = load ptr, ptr %vfn, align 8
  %call = call noundef i32 %1(ptr noundef nonnull align 8 dereferenceable(8) %this1, i32 noundef %0)
  ret i32 %call
}

; Function Attrs: mustprogress nounwind uwtable
define void @_ZN6icu_7517ScriptRunIterator11adjustLimitEi(ptr noundef nonnull align 8 dereferenceable(28) %this, i32 noundef %delta) #0 align 2 {
entry:
  %this.addr = alloca ptr, align 8
  %delta.addr = alloca i32, align 4
  store ptr %this, ptr %this.addr, align 8
  store i32 %delta, ptr %delta.addr, align 4
  %this1 = load ptr, ptr %this.addr, align 8
  %0 = load i32, ptr %delta.addr, align 4
  %limit = getelementptr inbounds %"class.icu_75::ScriptRunIterator", ptr %this1, i32 0, i32 5
  %1 = load i32, ptr %limit, align 8
  %add = add nsw i32 %1, %0
  store i32 %add, ptr %limit, align 8
  %2 = load i32, ptr %delta.addr, align 4
  %textLimit = getelementptr inbounds %"class.icu_75::ScriptRunIterator", ptr %this1, i32 0, i32 2
  %3 = load i32, ptr %textLimit, align 4
  %add2 = add nsw i32 %3, %2
  store i32 %add2, ptr %textLimit, align 4
  ret void
}

; Function Attrs: mustprogress uwtable
define noundef signext i8 @_ZN6icu_7517ScriptRunIterator4nextEv(ptr noundef nonnull align 8 dereferenceable(28) %this) #1 align 2 {
entry:
  %retval = alloca i8, align 1
  %this.addr = alloca ptr, align 8
  %ch = alloca i32, align 4
  %s = alloca i32, align 4
  %ec = alloca i32, align 4
  store ptr %this, ptr %this.addr, align 8
  %this1 = load ptr, ptr %this.addr, align 8
  store i32 0, ptr %ec, align 4
  %scriptCode = getelementptr inbounds %"class.icu_75::ScriptRunIterator", ptr %this1, i32 0, i32 3
  store i32 -1, ptr %scriptCode, align 8
  %limit = getelementptr inbounds %"class.icu_75::ScriptRunIterator", ptr %this1, i32 0, i32 5
  %0 = load i32, ptr %limit, align 8
  %start = getelementptr inbounds %"class.icu_75::ScriptRunIterator", ptr %this1, i32 0, i32 4
  store i32 %0, ptr %start, align 4
  %start2 = getelementptr inbounds %"class.icu_75::ScriptRunIterator", ptr %this1, i32 0, i32 4
  %1 = load i32, ptr %start2, align 4
  %textLimit = getelementptr inbounds %"class.icu_75::ScriptRunIterator", ptr %this1, i32 0, i32 2
  %2 = load i32, ptr %textLimit, align 4
  %cmp = icmp eq i32 %1, %2
  br i1 %cmp, label %if.then, label %if.end

if.then:                                          ; preds = %entry
  store i8 0, ptr %retval, align 1
  br label %return

if.end:                                           ; preds = %entry
  br label %while.cond

while.cond:                                       ; preds = %if.end11, %if.end
  %start3 = getelementptr inbounds %"class.icu_75::ScriptRunIterator", ptr %this1, i32 0, i32 4
  %3 = load i32, ptr %start3, align 4
  %textStart = getelementptr inbounds %"class.icu_75::ScriptRunIterator", ptr %this1, i32 0, i32 1
  %4 = load i32, ptr %textStart, align 8
  %cmp4 = icmp sgt i32 %3, %4
  br i1 %cmp4, label %while.body, label %while.end

while.body:                                       ; preds = %while.cond
  %text = getelementptr inbounds %"class.icu_75::ScriptRunIterator", ptr %this1, i32 0, i32 0
  %5 = load ptr, ptr %text, align 8
  %start5 = getelementptr inbounds %"class.icu_75::ScriptRunIterator", ptr %this1, i32 0, i32 4
  %6 = load i32, ptr %start5, align 4
  %sub = sub nsw i32 %6, 1
  %call = call noundef i32 @_ZNK6icu_7511Replaceable8char32AtEi(ptr noundef nonnull align 8 dereferenceable(8) %5, i32 noundef %sub)
  store i32 %call, ptr %ch, align 4
  %7 = load i32, ptr %ch, align 4
  %call6 = call i32 @uscript_getScript_75(i32 noundef %7, ptr noundef %ec)
  store i32 %call6, ptr %s, align 4
  %8 = load i32, ptr %s, align 4
  %cmp7 = icmp eq i32 %8, 0
  br i1 %cmp7, label %if.then9, label %lor.lhs.false

lor.lhs.false:                                    ; preds = %while.body
  %9 = load i32, ptr %s, align 4
  %cmp8 = icmp eq i32 %9, 1
  br i1 %cmp8, label %if.then9, label %if.else

if.then9:                                         ; preds = %lor.lhs.false, %while.body
  %start10 = getelementptr inbounds %"class.icu_75::ScriptRunIterator", ptr %this1, i32 0, i32 4
  %10 = load i32, ptr %start10, align 4
  %dec = add nsw i32 %10, -1
  store i32 %dec, ptr %start10, align 4
  br label %if.end11

if.else:                                          ; preds = %lor.lhs.false
  br label %while.end

if.end11:                                         ; preds = %if.then9
  br label %while.cond, !llvm.loop !4

while.end:                                        ; preds = %if.else, %while.cond
  br label %while.cond12

while.cond12:                                     ; preds = %if.end34, %while.end
  %limit13 = getelementptr inbounds %"class.icu_75::ScriptRunIterator", ptr %this1, i32 0, i32 5
  %11 = load i32, ptr %limit13, align 8
  %textLimit14 = getelementptr inbounds %"class.icu_75::ScriptRunIterator", ptr %this1, i32 0, i32 2
  %12 = load i32, ptr %textLimit14, align 4
  %cmp15 = icmp slt i32 %11, %12
  br i1 %cmp15, label %while.body16, label %while.end36

while.body16:                                     ; preds = %while.cond12
  %text17 = getelementptr inbounds %"class.icu_75::ScriptRunIterator", ptr %this1, i32 0, i32 0
  %13 = load ptr, ptr %text17, align 8
  %limit18 = getelementptr inbounds %"class.icu_75::ScriptRunIterator", ptr %this1, i32 0, i32 5
  %14 = load i32, ptr %limit18, align 8
  %call19 = call noundef i32 @_ZNK6icu_7511Replaceable8char32AtEi(ptr noundef nonnull align 8 dereferenceable(8) %13, i32 noundef %14)
  store i32 %call19, ptr %ch, align 4
  %15 = load i32, ptr %ch, align 4
  %call20 = call i32 @uscript_getScript_75(i32 noundef %15, ptr noundef %ec)
  store i32 %call20, ptr %s, align 4
  %16 = load i32, ptr %s, align 4
  %cmp21 = icmp ne i32 %16, 0
  br i1 %cmp21, label %land.lhs.true, label %if.end34

land.lhs.true:                                    ; preds = %while.body16
  %17 = load i32, ptr %s, align 4
  %cmp22 = icmp ne i32 %17, 1
  br i1 %cmp22, label %if.then23, label %if.end34

if.then23:                                        ; preds = %land.lhs.true
  %scriptCode24 = getelementptr inbounds %"class.icu_75::ScriptRunIterator", ptr %this1, i32 0, i32 3
  %18 = load i32, ptr %scriptCode24, align 8
  %cmp25 = icmp eq i32 %18, -1
  br i1 %cmp25, label %if.then26, label %if.else28

if.then26:                                        ; preds = %if.then23
  %19 = load i32, ptr %s, align 4
  %scriptCode27 = getelementptr inbounds %"class.icu_75::ScriptRunIterator", ptr %this1, i32 0, i32 3
  store i32 %19, ptr %scriptCode27, align 8
  br label %if.end33

if.else28:                                        ; preds = %if.then23
  %20 = load i32, ptr %s, align 4
  %scriptCode29 = getelementptr inbounds %"class.icu_75::ScriptRunIterator", ptr %this1, i32 0, i32 3
  %21 = load i32, ptr %scriptCode29, align 8
  %cmp30 = icmp ne i32 %20, %21
  br i1 %cmp30, label %if.then31, label %if.end32

if.then31:                                        ; preds = %if.else28
  br label %while.end36

if.end32:                                         ; preds = %if.else28
  br label %if.end33

if.end33:                                         ; preds = %if.end32, %if.then26
  br label %if.end34

if.end34:                                         ; preds = %if.end33, %land.lhs.true, %while.body16
  %limit35 = getelementptr inbounds %"class.icu_75::ScriptRunIterator", ptr %this1, i32 0, i32 5
  %22 = load i32, ptr %limit35, align 8
  %inc = add nsw i32 %22, 1
  store i32 %inc, ptr %limit35, align 8
  br label %while.cond12, !llvm.loop !6

while.end36:                                      ; preds = %if.then31, %while.cond12
  store i8 1, ptr %retval, align 1
  br label %return

return:                                           ; preds = %while.end36, %if.then
  %23 = load i8, ptr %retval, align 1
  ret i8 %23
}

; Function Attrs: mustprogress uwtable
define void @_ZNK6icu_7517AnyTransliterator19handleTransliterateERNS_11ReplaceableER14UTransPositiona(ptr noundef nonnull align 8 dereferenceable(164) %this, ptr noundef nonnull align 8 dereferenceable(8) %text, ptr noundef nonnull align 4 dereferenceable(16) %pos, i8 noundef signext %isIncremental) unnamed_addr #1 align 2 {
entry:
  %this.addr = alloca ptr, align 8
  %text.addr = alloca ptr, align 8
  %pos.addr = alloca ptr, align 8
  %isIncremental.addr = alloca i8, align 1
  %allStart = alloca i32, align 4
  %allLimit = alloca i32, align 4
  %it = alloca %"class.icu_75::ScriptRunIterator", align 8
  %t = alloca ptr, align 8
  %incremental = alloca i8, align 1
  %limit18 = alloca i32, align 4
  %delta = alloca i32, align 4
  store ptr %this, ptr %this.addr, align 8
  store ptr %text, ptr %text.addr, align 8
  store ptr %pos, ptr %pos.addr, align 8
  store i8 %isIncremental, ptr %isIncremental.addr, align 1
  %this1 = load ptr, ptr %this.addr, align 8
  %0 = load ptr, ptr %pos.addr, align 8
  %start = getelementptr inbounds %struct.UTransPosition, ptr %0, i32 0, i32 2
  %1 = load i32, ptr %start, align 4
  store i32 %1, ptr %allStart, align 4
  %2 = load ptr, ptr %pos.addr, align 8
  %limit = getelementptr inbounds %struct.UTransPosition, ptr %2, i32 0, i32 3
  %3 = load i32, ptr %limit, align 4
  store i32 %3, ptr %allLimit, align 4
  %4 = load ptr, ptr %text.addr, align 8
  %5 = load ptr, ptr %pos.addr, align 8
  %contextStart = getelementptr inbounds %struct.UTransPosition, ptr %5, i32 0, i32 0
  %6 = load i32, ptr %contextStart, align 4
  %7 = load ptr, ptr %pos.addr, align 8
  %contextLimit = getelementptr inbounds %struct.UTransPosition, ptr %7, i32 0, i32 1
  %8 = load i32, ptr %contextLimit, align 4
  call void @_ZN6icu_7517ScriptRunIteratorC1ERKNS_11ReplaceableEii(ptr noundef nonnull align 8 dereferenceable(28) %it, ptr noundef nonnull align 8 dereferenceable(8) %4, i32 noundef %6, i32 noundef %8)
  br label %while.cond

while.cond:                                       ; preds = %if.end24, %if.then5, %if.then, %entry
  %call = call noundef signext i8 @_ZN6icu_7517ScriptRunIterator4nextEv(ptr noundef nonnull align 8 dereferenceable(28) %it)
  %tobool = icmp ne i8 %call, 0
  br i1 %tobool, label %while.body, label %while.end

while.body:                                       ; preds = %while.cond
  %limit2 = getelementptr inbounds %"class.icu_75::ScriptRunIterator", ptr %it, i32 0, i32 5
  %9 = load i32, ptr %limit2, align 8
  %10 = load i32, ptr %allStart, align 4
  %cmp = icmp sle i32 %9, %10
  br i1 %cmp, label %if.then, label %if.end

if.then:                                          ; preds = %while.body
  br label %while.cond, !llvm.loop !7

if.end:                                           ; preds = %while.body
  %scriptCode = getelementptr inbounds %"class.icu_75::ScriptRunIterator", ptr %it, i32 0, i32 3
  %11 = load i32, ptr %scriptCode, align 8
  %call3 = call noundef ptr @_ZNK6icu_7517AnyTransliterator17getTransliteratorE11UScriptCode(ptr noundef nonnull align 8 dereferenceable(164) %this1, i32 noundef %11)
  store ptr %call3, ptr %t, align 8
  %12 = load ptr, ptr %t, align 8
  %cmp4 = icmp eq ptr %12, null
  br i1 %cmp4, label %if.then5, label %if.end8

if.then5:                                         ; preds = %if.end
  %limit6 = getelementptr inbounds %"class.icu_75::ScriptRunIterator", ptr %it, i32 0, i32 5
  %13 = load i32, ptr %limit6, align 8
  %14 = load ptr, ptr %pos.addr, align 8
  %start7 = getelementptr inbounds %struct.UTransPosition, ptr %14, i32 0, i32 2
  store i32 %13, ptr %start7, align 4
  br label %while.cond, !llvm.loop !7

if.end8:                                          ; preds = %if.end
  %15 = load i8, ptr %isIncremental.addr, align 1
  %tobool9 = icmp ne i8 %15, 0
  br i1 %tobool9, label %land.rhs, label %land.end

land.rhs:                                         ; preds = %if.end8
  %limit10 = getelementptr inbounds %"class.icu_75::ScriptRunIterator", ptr %it, i32 0, i32 5
  %16 = load i32, ptr %limit10, align 8
  %17 = load i32, ptr %allLimit, align 4
  %cmp11 = icmp sge i32 %16, %17
  br label %land.end

land.end:                                         ; preds = %land.rhs, %if.end8
  %18 = phi i1 [ false, %if.end8 ], [ %cmp11, %land.rhs ]
  %conv = zext i1 %18 to i8
  store i8 %conv, ptr %incremental, align 1
  %19 = load i32, ptr %allStart, align 4
  %start12 = getelementptr inbounds %"class.icu_75::ScriptRunIterator", ptr %it, i32 0, i32 4
  %20 = load i32, ptr %start12, align 4
  %call13 = call i32 @uprv_max_75(i32 noundef %19, i32 noundef %20)
  %21 = load ptr, ptr %pos.addr, align 8
  %start14 = getelementptr inbounds %struct.UTransPosition, ptr %21, i32 0, i32 2
  store i32 %call13, ptr %start14, align 4
  %22 = load i32, ptr %allLimit, align 4
  %limit15 = getelementptr inbounds %"class.icu_75::ScriptRunIterator", ptr %it, i32 0, i32 5
  %23 = load i32, ptr %limit15, align 8
  %call16 = call i32 @uprv_min_75(i32 noundef %22, i32 noundef %23)
  %24 = load ptr, ptr %pos.addr, align 8
  %limit17 = getelementptr inbounds %struct.UTransPosition, ptr %24, i32 0, i32 3
  store i32 %call16, ptr %limit17, align 4
  %25 = load ptr, ptr %pos.addr, align 8
  %limit19 = getelementptr inbounds %struct.UTransPosition, ptr %25, i32 0, i32 3
  %26 = load i32, ptr %limit19, align 4
  store i32 %26, ptr %limit18, align 4
  %27 = load ptr, ptr %t, align 8
  %28 = load ptr, ptr %text.addr, align 8
  %29 = load ptr, ptr %pos.addr, align 8
  %30 = load i8, ptr %incremental, align 1
  %vtable = load ptr, ptr %27, align 8
  %vfn = getelementptr inbounds ptr, ptr %vtable, i64 11
  %31 = load ptr, ptr %vfn, align 8
  call void %31(ptr noundef nonnull align 8 dereferenceable(84) %27, ptr noundef nonnull align 8 dereferenceable(8) %28, ptr noundef nonnull align 4 dereferenceable(16) %29, i8 noundef signext %30)
  %32 = load ptr, ptr %pos.addr, align 8
  %limit20 = getelementptr inbounds %struct.UTransPosition, ptr %32, i32 0, i32 3
  %33 = load i32, ptr %limit20, align 4
  %34 = load i32, ptr %limit18, align 4
  %sub = sub nsw i32 %33, %34
  store i32 %sub, ptr %delta, align 4
  %35 = load i32, ptr %delta, align 4
  %36 = load i32, ptr %allLimit, align 4
  %add = add nsw i32 %36, %35
  store i32 %add, ptr %allLimit, align 4
  %37 = load i32, ptr %delta, align 4
  call void @_ZN6icu_7517ScriptRunIterator11adjustLimitEi(ptr noundef nonnull align 8 dereferenceable(28) %it, i32 noundef %37)
  %limit21 = getelementptr inbounds %"class.icu_75::ScriptRunIterator", ptr %it, i32 0, i32 5
  %38 = load i32, ptr %limit21, align 8
  %39 = load i32, ptr %allLimit, align 4
  %cmp22 = icmp sge i32 %38, %39
  br i1 %cmp22, label %if.then23, label %if.end24

if.then23:                                        ; preds = %land.end
  br label %while.end

if.end24:                                         ; preds = %land.end
  br label %while.cond, !llvm.loop !7

while.end:                                        ; preds = %if.then23, %while.cond
  %40 = load i32, ptr %allLimit, align 4
  %41 = load ptr, ptr %pos.addr, align 8
  %limit25 = getelementptr inbounds %struct.UTransPosition, ptr %41, i32 0, i32 3
  store i32 %40, ptr %limit25, align 4
  ret void
}