; Function Attrs: mustprogress uwtable
define void @_ZNK6icu_7517AnyTransliterator19handleTransliterateERNS_11ReplaceableER14UTransPositiona(ptr noundef nonnull align 8 dereferenceable(164) %this, ptr noundef nonnull align 8 dereferenceable(8) %text, ptr noundef nonnull align 4 dereferenceable(16) %pos, i8 noundef signext %isIncremental) unnamed_addr #1 align 2 {
entry:
  %ec.i = alloca i32, align 4
  %it = alloca %"class.icu_75::ScriptRunIterator", align 8
  %start = getelementptr inbounds i8, ptr %pos, i64 8
  %0 = load i32, ptr %start, align 4
  %limit = getelementptr inbounds i8, ptr %pos, i64 12
  %1 = load i32, ptr %limit, align 4
  %2 = load i32, ptr %pos, align 4
  %contextLimit = getelementptr inbounds i8, ptr %pos, i64 4
  %3 = load i32, ptr %contextLimit, align 4
  call void @_ZN6icu_7517ScriptRunIteratorC1ERKNS_11ReplaceableEii(ptr noundef nonnull align 8 dereferenceable(28) %it, ptr noundef nonnull align 8 dereferenceable(8) %text, i32 noundef %2, i32 noundef %3)
  %scriptCode.i = getelementptr inbounds i8, ptr %it, i64 16
  %limit.i = getelementptr inbounds i8, ptr %it, i64 24
  %start.i = getelementptr inbounds i8, ptr %it, i64 20
  %textLimit.i = getelementptr inbounds i8, ptr %it, i64 12
  %textStart.i = getelementptr inbounds i8, ptr %it, i64 8
  %tobool9 = icmp ne i8 %isIncremental, 0
  %.pre = load i32, ptr %limit.i, align 8
  %.pre33 = load i32, ptr %textLimit.i, align 4
  br label %while.cond.outer

while.cond.outer:                                 ; preds = %if.end8, %entry
  %4 = phi i32 [ %add2.i, %if.end8 ], [ %.pre33, %entry ]
  %5 = phi i32 [ %add.i, %if.end8 ], [ %.pre, %entry ]
  %allLimit.0.ph = phi i32 [ %add, %if.end8 ], [ %1, %entry ]
  call void @llvm.lifetime.start.p0(i64 4, ptr nonnull %ec.i)
  store i32 0, ptr %ec.i, align 4
  store i32 -1, ptr %scriptCode.i, align 8
  store i32 %5, ptr %start.i, align 4
  %cmp.i27 = icmp eq i32 %5, %4
  br i1 %cmp.i27, label %_ZN6icu_7517ScriptRunIterator4nextEv.exit, label %while.cond.preheader.i

while.cond.preheader.i:                           ; preds = %while.cond.outer, %while.cond.backedge
  %6 = phi i32 [ %25, %while.cond.backedge ], [ %5, %while.cond.outer ]
  %7 = phi i32 [ %26, %while.cond.backedge ], [ %4, %while.cond.outer ]
  %8 = load i32, ptr %textStart.i, align 8
  %cmp413.i = icmp sgt i32 %6, %8
  br i1 %cmp413.i, label %while.body.i, label %while.end.i

while.body.i:                                     ; preds = %while.cond.preheader.i, %if.then9.i
  %9 = phi i32 [ %dec.i, %if.then9.i ], [ %6, %while.cond.preheader.i ]
  %10 = load ptr, ptr %it, align 8
  %sub.i = add nsw i32 %9, -1
  %vtable.i.i = load ptr, ptr %10, align 8
  %vfn.i.i = getelementptr inbounds i8, ptr %vtable.i.i, i64 80
  %11 = load ptr, ptr %vfn.i.i, align 8
  %call.i.i = call noundef i32 %11(ptr noundef nonnull align 8 dereferenceable(8) %10, i32 noundef %sub.i)
  %call6.i = call i32 @uscript_getScript_75(i32 noundef %call.i.i, ptr noundef nonnull %ec.i)
  %or.cond.i = icmp ult i32 %call6.i, 2
  br i1 %or.cond.i, label %if.then9.i, label %while.end.loopexit.i

if.then9.i:                                       ; preds = %while.body.i
  %12 = load i32, ptr %start.i, align 4
  %dec.i = add nsw i32 %12, -1
  store i32 %dec.i, ptr %start.i, align 4
  %13 = load i32, ptr %textStart.i, align 8
  %cmp4.i = icmp sgt i32 %dec.i, %13
  br i1 %cmp4.i, label %while.body.i, label %while.end.loopexit.i, !llvm.loop !4

while.end.loopexit.i:                             ; preds = %if.then9.i, %while.body.i
  %.pre.i = load i32, ptr %limit.i, align 8
  %.pre15.i = load i32, ptr %textLimit.i, align 4
  br label %while.end.i

while.end.i:                                      ; preds = %while.end.loopexit.i, %while.cond.preheader.i
  %14 = phi i32 [ %.pre.i, %while.end.loopexit.i ], [ %6, %while.cond.preheader.i ]
  %15 = phi i32 [ %.pre15.i, %while.end.loopexit.i ], [ %7, %while.cond.preheader.i ]
  %cmp1514.i = icmp slt i32 %14, %15
  br i1 %cmp1514.i, label %while.body16.i, label %while.body

while.body16.i:                                   ; preds = %while.end.i, %if.end34.i
  %16 = phi i32 [ %inc.i, %if.end34.i ], [ %14, %while.end.i ]
  %17 = load ptr, ptr %it, align 8
  %vtable.i10.i = load ptr, ptr %17, align 8
  %vfn.i11.i = getelementptr inbounds i8, ptr %vtable.i10.i, i64 80
  %18 = load ptr, ptr %vfn.i11.i, align 8
  %call.i12.i = call noundef i32 %18(ptr noundef nonnull align 8 dereferenceable(8) %17, i32 noundef %16)
  %call20.i = call i32 @uscript_getScript_75(i32 noundef %call.i12.i, ptr noundef nonnull %ec.i)
  %or.cond1.i = icmp ugt i32 %call20.i, 1
  br i1 %or.cond1.i, label %if.then23.i, label %if.end34.i

if.then23.i:                                      ; preds = %while.body16.i
  %19 = load i32, ptr %scriptCode.i, align 8
  %cmp25.i = icmp eq i32 %19, -1
  br i1 %cmp25.i, label %if.then26.i, label %if.else28.i

if.then26.i:                                      ; preds = %if.then23.i
  store i32 %call20.i, ptr %scriptCode.i, align 8
  br label %if.end34.i

if.else28.i:                                      ; preds = %if.then23.i
  %cmp30.not.i = icmp eq i32 %call20.i, %19
  br i1 %cmp30.not.i, label %if.end34.i, label %if.else28.i.while.body.loopexit_crit_edge

if.else28.i.while.body.loopexit_crit_edge:        ; preds = %if.else28.i
  %.pre34.pre = load i32, ptr %limit.i, align 8
  br label %while.body

if.end34.i:                                       ; preds = %if.else28.i, %if.then26.i, %while.body16.i
  %20 = load i32, ptr %limit.i, align 8
  %inc.i = add nsw i32 %20, 1
  store i32 %inc.i, ptr %limit.i, align 8
  %21 = load i32, ptr %textLimit.i, align 4
  %cmp15.i = icmp slt i32 %inc.i, %21
  br i1 %cmp15.i, label %while.body16.i, label %while.body, !llvm.loop !6

_ZN6icu_7517ScriptRunIterator4nextEv.exit:        ; preds = %while.cond.outer, %while.cond.backedge
  call void @llvm.lifetime.end.p0(i64 4, ptr nonnull %ec.i)
  br label %while.end

while.body:                                       ; preds = %if.end34.i, %if.else28.i.while.body.loopexit_crit_edge, %while.end.i
  %22 = phi i32 [ %14, %while.end.i ], [ %.pre34.pre, %if.else28.i.while.body.loopexit_crit_edge ], [ %inc.i, %if.end34.i ]
  call void @llvm.lifetime.end.p0(i64 4, ptr nonnull %ec.i)
  %cmp.not = icmp sgt i32 %22, %0
  br i1 %cmp.not, label %if.end, label %while.cond.backedge

if.end:                                           ; preds = %while.body
  %23 = load i32, ptr %scriptCode.i, align 8
  %call3 = call noundef ptr @_ZNK6icu_7517AnyTransliterator17getTransliteratorE11UScriptCode(ptr noundef nonnull align 8 dereferenceable(164) %this, i32 noundef %23)
  %cmp4 = icmp eq ptr %call3, null
  %24 = load i32, ptr %limit.i, align 8
  br i1 %cmp4, label %if.then5, label %if.end8

if.then5:                                         ; preds = %if.end
  store i32 %24, ptr %start, align 4
  br label %while.cond.backedge

while.cond.backedge:                              ; preds = %if.then5, %while.body
  %25 = phi i32 [ %24, %if.then5 ], [ %22, %while.body ]
  call void @llvm.lifetime.start.p0(i64 4, ptr nonnull %ec.i)
  store i32 0, ptr %ec.i, align 4
  store i32 -1, ptr %scriptCode.i, align 8
  store i32 %25, ptr %start.i, align 4
  %26 = load i32, ptr %textLimit.i, align 4
  %cmp.i = icmp eq i32 %25, %26
  br i1 %cmp.i, label %_ZN6icu_7517ScriptRunIterator4nextEv.exit, label %while.cond.preheader.i, !llvm.loop !7

if.end8:                                          ; preds = %if.end
  %cmp11 = icmp sge i32 %24, %allLimit.0.ph
  %27 = select i1 %tobool9, i1 %cmp11, i1 false
  %conv = zext i1 %27 to i8
  %28 = load i32, ptr %start.i, align 4
  %call13 = call i32 @uprv_max_75(i32 noundef %0, i32 noundef %28)
  store i32 %call13, ptr %start, align 4
  %29 = load i32, ptr %limit.i, align 8
  %call16 = call i32 @uprv_min_75(i32 noundef %allLimit.0.ph, i32 noundef %29)
  store i32 %call16, ptr %limit, align 4
  %vtable = load ptr, ptr %call3, align 8
  %vfn = getelementptr inbounds i8, ptr %vtable, i64 88
  %30 = load ptr, ptr %vfn, align 8
  call void %30(ptr noundef nonnull align 8 dereferenceable(84) %call3, ptr noundef nonnull align 8 dereferenceable(8) %text, ptr noundef nonnull align 4 dereferenceable(16) %pos, i8 noundef signext %conv)
  %31 = load i32, ptr %limit, align 4
  %sub = sub nsw i32 %31, %call16
  %add = add nsw i32 %sub, %allLimit.0.ph
  %32 = load i32, ptr %limit.i, align 8
  %add.i = add nsw i32 %32, %sub
  store i32 %add.i, ptr %limit.i, align 8
  %33 = load i32, ptr %textLimit.i, align 4
  %add2.i = add nsw i32 %33, %sub
  store i32 %add2.i, ptr %textLimit.i, align 4
  %cmp22.not = icmp slt i32 %32, %allLimit.0.ph
  br i1 %cmp22.not, label %while.cond.outer, label %while.end, !llvm.loop !7

while.end:                                        ; preds = %if.end8, %_ZN6icu_7517ScriptRunIterator4nextEv.exit
  %allLimit.1 = phi i32 [ %allLimit.0.ph, %_ZN6icu_7517ScriptRunIterator4nextEv.exit ], [ %add, %if.end8 ]
  store i32 %allLimit.1, ptr %limit, align 4
  ret void
}